target datalayout = "e-m:e-p270:32:32-p271:32:32-p272:64:64-i64:64-i128:128-f80:128-n8:16:32:64-S128"
target triple = "x86_64-pc-linux-gnu"

@.str = private unnamed_addr constant [11 x i8] c"RW_REWRITE\00", align 1
@.str.1 = private unnamed_addr constant [15 x i8] c"RW_EXT_REWRITE\00", align 1
@.str.2 = private unnamed_addr constant [19 x i8] c"RW_EXT_REWRITE_AGG\00", align 1
@.str.3 = private unnamed_addr constant [18 x i8] c"RW_REWRITE_EQ_EXT\00", align 1
@.str.4 = private unnamed_addr constant [12 x i8] c"RW_EVALUATE\00", align 1
@.str.5 = private unnamed_addr constant [12 x i8] c"RW_IDENTITY\00", align 1
@.str.6 = private unnamed_addr constant [22 x i8] c"RW_REWRITE_THEORY_PRE\00", align 1
@.str.7 = private unnamed_addr constant [23 x i8] c"RW_REWRITE_THEORY_POST\00", align 1
@.str.8 = private unnamed_addr constant [11 x i8] c"SB_DEFAULT\00", align 1
@.str.9 = private unnamed_addr constant [11 x i8] c"SB_LITERAL\00", align 1
@.str.10 = private unnamed_addr constant [11 x i8] c"SB_FORMULA\00", align 1
@.str.11 = private unnamed_addr constant [15 x i8] c"SBA_SEQUENTIAL\00", align 1
@.str.12 = private unnamed_addr constant [10 x i8] c"SBA_SIMUL\00", align 1
@.str.13 = private unnamed_addr constant [13 x i8] c"SBA_FIXPOINT\00", align 1
@.str.14 = private unnamed_addr constant [18 x i8] c"MethodId::Unknown\00", align 1

; Function Attrs: mustprogress nounwind uwtable
define hidden noundef ptr @_ZN4cvc58internal8toStringENS0_8MethodIdE(i32 noundef %0) #4 {
  %2 = alloca ptr, align 8
  %3 = alloca i32, align 4
  store i32 %0, ptr %3, align 4, !tbaa !3
  %4 = load i32, ptr %3, align 4, !tbaa !3
  switch i32 %4, label %19 [
    i32 0, label %5
    i32 1, label %6
    i32 2, label %7
    i32 3, label %8
    i32 4, label %9
    i32 5, label %10
    i32 6, label %11
    i32 7, label %12
    i32 8, label %13
    i32 9, label %14
    i32 10, label %15
    i32 11, label %16
    i32 12, label %17
    i32 13, label %18
  ]

5:                                                ; preds = %1
  store ptr @.str, ptr %2, align 8
  br label %20

6:                                                ; preds = %1
  store ptr @.str.1, ptr %2, align 8
  br label %20

7:                                                ; preds = %1
  store ptr @.str.2, ptr %2, align 8
  br label %20

8:                                                ; preds = %1
  store ptr @.str.3, ptr %2, align 8
  br label %20

9:                                                ; preds = %1
  store ptr @.str.4, ptr %2, align 8
  br label %20

10:                                               ; preds = %1
  store ptr @.str.5, ptr %2, align 8
  br label %20

11:                                               ; preds = %1
  store ptr @.str.6, ptr %2, align 8
  br label %20

12:                                               ; preds = %1
  store ptr @.str.7, ptr %2, align 8
  br label %20

13:                                               ; preds = %1
  store ptr @.str.8, ptr %2, align 8
  br label %20

14:                                               ; preds = %1
  store ptr @.str.9, ptr %2, align 8
  br label %20

15:                                               ; preds = %1
  store ptr @.str.10, ptr %2, align 8
  br label %20

16:                                               ; preds = %1
  store ptr @.str.11, ptr %2, align 8
  br label %20

17:                                               ; preds = %1
  store ptr @.str.12, ptr %2, align 8
  br label %20

18:                                               ; preds = %1
  store ptr @.str.13, ptr %2, align 8
  br label %20

19:                                               ; preds = %1
  store ptr @.str.14, ptr %2, align 8
  br label %20

20:                                               ; preds = %19, %18, %17, %16, %15, %14, %13, %12, %11, %10, %9, %8, %7, %6, %5
  %21 = load ptr, ptr %2, align 8
  ret ptr %21
}